target datalayout = "e-m:e-p270:32:32-p271:32:32-p272:64:64-i64:64-i128:128-f80:128-n8:16:32:64-S128"
target triple = "x86_64-pc-linux-gnu"

%struct.psset_s = type { [64 x %struct.hpdata_age_heap_t], [1 x i64], %struct.psset_bin_stats_s, %struct.psset_stats_s, %struct.hpdata_empty_list_t, [128 x %struct.hpdata_purge_list_t], [2 x i64], %struct.hpdata_hugify_list_t }
%struct.hpdata_age_heap_t = type { %struct.ph_s }
%struct.ph_s = type { ptr, i64 }
%struct.psset_bin_stats_s = type { i64, i64, i64 }
%struct.psset_stats_s = type { [64 x [2 x %struct.psset_bin_stats_s]], [2 x %struct.psset_bin_stats_s], [2 x %struct.psset_bin_stats_s] }
%struct.hpdata_empty_list_t = type { %struct.anon }
%struct.anon = type { ptr }
%struct.hpdata_purge_list_t = type { %struct.anon.0 }
%struct.anon.0 = type { ptr }
%struct.hpdata_hugify_list_t = type { %struct.anon.1 }
%struct.anon.1 = type { ptr }

; Function Attrs: inlinehint nounwind uwtable
define internal i32 @fls_lu(i64 noundef %0) #3 {
  %2 = alloca i64, align 8
  store i64 %0, ptr %2, align 8, !tbaa !12
  %3 = load i64, ptr %2, align 8, !tbaa !12
  %4 = icmp ne i64 %3, 0
  call void @llvm.assume(i1 %4)
  %5 = load i64, ptr %2, align 8, !tbaa !12
  %6 = call i64 @llvm.ctlz.i64(i64 %5, i1 true)
  %7 = trunc i64 %6 to i32
  %8 = sext i32 %7 to i64
  %9 = xor i64 63, %8
  %10 = trunc i64 %9 to i32
  ret i32 %10
}

; Function Attrs: inlinehint nounwind uwtable
define internal i32 @ffs_lu(i64 noundef %0) #3 {
  %2 = alloca i64, align 8
  store i64 %0, ptr %2, align 8, !tbaa !12
  %3 = load i64, ptr %2, align 8, !tbaa !12
  %4 = icmp ne i64 %3, 0
  call void @llvm.assume(i1 %4)
  %5 = load i64, ptr %2, align 8, !tbaa !12
  %6 = call i64 @llvm.cttz.i64(i64 %5, i1 true)
  %7 = add i64 %6, 1
  %8 = icmp eq i64 %5, 0
  %9 = select i1 %8, i64 0, i64 %7
  %10 = trunc i64 %9 to i32
  %11 = sub nsw i32 %10, 1
  ret i32 %11
}

; Function Attrs: alwaysinline nounwind uwtable
define internal i64 @fb_find_impl(ptr noundef %0, i64 noundef %1, i64 noundef %2, i1 noundef zeroext %3, i1 noundef zeroext %4) #5 {
  %6 = alloca i64, align 8
  %7 = alloca ptr, align 8
  %8 = alloca i64, align 8
  %9 = alloca i64, align 8
  %10 = alloca i8, align 1
  %11 = alloca i8, align 1
  %12 = alloca i64, align 8
  %13 = alloca i64, align 8
  %14 = alloca i64, align 8
  %15 = alloca i64, align 8
  %16 = alloca i64, align 8
  %17 = alloca i64, align 8
  %18 = alloca i32, align 4
  %19 = alloca i64, align 8
  %20 = alloca i64, align 8
  store ptr %0, ptr %7, align 8, !tbaa !10
  store i64 %1, ptr %8, align 8, !tbaa !12
  store i64 %2, ptr %9, align 8, !tbaa !12
  %21 = zext i1 %3 to i8
  store i8 %21, ptr %10, align 1, !tbaa !28
  %22 = zext i1 %4 to i8
  store i8 %22, ptr %11, align 1, !tbaa !28
  br label %23

23:                                               ; preds = %5
  br label %24

24:                                               ; preds = %23
  call void @llvm.lifetime.start.p0(i64 8, ptr %12) #9
  %25 = load i64, ptr %8, align 8, !tbaa !12
  %26 = udiv i64 %25, 64
  %27 = load i64, ptr %8, align 8, !tbaa !12
  %28 = urem i64 %27, 64
  %29 = icmp eq i64 %28, 0
  %30 = select i1 %29, i32 0, i32 1
  %31 = sext i32 %30 to i64
  %32 = add i64 %26, %31
  store i64 %32, ptr %12, align 8, !tbaa !12
  call void @llvm.lifetime.start.p0(i64 8, ptr %13) #9
  %33 = load i64, ptr %9, align 8, !tbaa !12
  %34 = udiv i64 %33, 64
  store i64 %34, ptr %13, align 8, !tbaa !12
  call void @llvm.lifetime.start.p0(i64 8, ptr %14) #9
  %35 = load i64, ptr %9, align 8, !tbaa !12
  %36 = urem i64 %35, 64
  store i64 %36, ptr %14, align 8, !tbaa !12
  call void @llvm.lifetime.start.p0(i64 8, ptr %15) #9
  %37 = load i8, ptr %10, align 1, !tbaa !28, !range !30, !noundef !31
  %38 = trunc i8 %37 to i1
  %39 = select i1 %38, i64 0, i64 -1
  store i64 %39, ptr %15, align 8, !tbaa !12
  call void @llvm.lifetime.start.p0(i64 8, ptr %16) #9
  %40 = load ptr, ptr %7, align 8, !tbaa !10
  %41 = load i64, ptr %13, align 8, !tbaa !12
  %42 = getelementptr inbounds i64, ptr %40, i64 %41
  %43 = load i64, ptr %42, align 8, !tbaa !12
  store i64 %43, ptr %16, align 8, !tbaa !12
  %44 = load i64, ptr %15, align 8, !tbaa !12
  %45 = load i64, ptr %16, align 8, !tbaa !12
  %46 = xor i64 %45, %44
  store i64 %46, ptr %16, align 8, !tbaa !12
  %47 = load i8, ptr %11, align 1, !tbaa !28, !range !30, !noundef !31
  %48 = trunc i8 %47 to i1
  br i1 %48, label %49, label %56

49:                                               ; preds = %24
  %50 = load i64, ptr %14, align 8, !tbaa !12
  %51 = shl i64 1, %50
  %52 = sub i64 %51, 1
  %53 = xor i64 %52, -1
  %54 = load i64, ptr %16, align 8, !tbaa !12
  %55 = and i64 %54, %53
  store i64 %55, ptr %16, align 8, !tbaa !12
  br label %62

56:                                               ; preds = %24
  %57 = load i64, ptr %14, align 8, !tbaa !12
  %58 = shl i64 2, %57
  %59 = sub i64 %58, 1
  %60 = load i64, ptr %16, align 8, !tbaa !12
  %61 = and i64 %60, %59
  store i64 %61, ptr %16, align 8, !tbaa !12
  br label %62

62:                                               ; preds = %56, %49
  call void @llvm.lifetime.start.p0(i64 8, ptr %17) #9
  %63 = load i8, ptr %11, align 1, !tbaa !28, !range !30, !noundef !31
  %64 = trunc i8 %63 to i1
  br i1 %64, label %65, label %67

65:                                               ; preds = %62
  %66 = load i64, ptr %12, align 8, !tbaa !12
  br label %68

67:                                               ; preds = %62
  br label %68

68:                                               ; preds = %67, %65
  %69 = phi i64 [ %66, %65 ], [ -1, %67 ]
  store i64 %69, ptr %17, align 8, !tbaa !12
  br label %70

70:                                               ; preds = %91, %68
  %71 = load i64, ptr %16, align 8, !tbaa !12
  %72 = icmp eq i64 %71, 0
  br i1 %72, label %73, label %99

73:                                               ; preds = %70
  %74 = load i8, ptr %11, align 1, !tbaa !28, !range !30, !noundef !31
  %75 = trunc i8 %74 to i1
  %76 = select i1 %75, i32 1, i32 -1
  %77 = sext i32 %76 to i64
  %78 = load i64, ptr %13, align 8, !tbaa !12
  %79 = add nsw i64 %78, %77
  store i64 %79, ptr %13, align 8, !tbaa !12
  %80 = load i64, ptr %13, align 8, !tbaa !12
  %81 = load i64, ptr %17, align 8, !tbaa !12
  %82 = icmp eq i64 %80, %81
  br i1 %82, label %83, label %91

83:                                               ; preds = %73
  %84 = load i8, ptr %11, align 1, !tbaa !28, !range !30, !noundef !31
  %85 = trunc i8 %84 to i1
  br i1 %85, label %86, label %88

86:                                               ; preds = %83
  %87 = load i64, ptr %8, align 8, !tbaa !12
  br label %89

88:                                               ; preds = %83
  br label %89

89:                                               ; preds = %88, %86
  %90 = phi i64 [ %87, %86 ], [ -1, %88 ]
  store i64 %90, ptr %6, align 8
  store i32 1, ptr %18, align 4
  br label %132

91:                                               ; preds = %73
  %92 = load ptr, ptr %7, align 8, !tbaa !10
  %93 = load i64, ptr %13, align 8, !tbaa !12
  %94 = getelementptr inbounds i64, ptr %92, i64 %93
  %95 = load i64, ptr %94, align 8, !tbaa !12
  store i64 %95, ptr %16, align 8, !tbaa !12
  %96 = load i64, ptr %15, align 8, !tbaa !12
  %97 = load i64, ptr %16, align 8, !tbaa !12
  %98 = xor i64 %97, %96
  store i64 %98, ptr %16, align 8, !tbaa !12
  br label %70

99:                                               ; preds = %70
  br label %100

100:                                              ; preds = %99
  br label %101

101:                                              ; preds = %100
  br label %102

102:                                              ; preds = %101
  call void @llvm.lifetime.start.p0(i64 8, ptr %19) #9
  %103 = load i8, ptr %11, align 1, !tbaa !28, !range !30, !noundef !31
  %104 = trunc i8 %103 to i1
  br i1 %104, label %105, label %108

105:                                              ; preds = %102
  %106 = load i64, ptr %16, align 8, !tbaa !12
  %107 = call i32 @ffs_lu(i64 noundef %106)
  br label %111

108:                                              ; preds = %102
  %109 = load i64, ptr %16, align 8, !tbaa !12
  %110 = call i32 @fls_lu(i64 noundef %109)
  br label %111

111:                                              ; preds = %108, %105
  %112 = phi i32 [ %107, %105 ], [ %110, %108 ]
  %113 = zext i32 %112 to i64
  store i64 %113, ptr %19, align 8, !tbaa !12
  call void @llvm.lifetime.start.p0(i64 8, ptr %20) #9
  %114 = load i64, ptr %13, align 8, !tbaa !12
  %115 = mul i64 %114, 64
  %116 = load i64, ptr %19, align 8, !tbaa !12
  %117 = add i64 %115, %116
  store i64 %117, ptr %20, align 8, !tbaa !12
  %118 = load i8, ptr %11, align 1, !tbaa !28, !range !30, !noundef !31
  %119 = trunc i8 %118 to i1
  br i1 %119, label %120, label %129

120:                                              ; preds = %111
  %121 = load i8, ptr %10, align 1, !tbaa !28, !range !30, !noundef !31
  %122 = trunc i8 %121 to i1
  br i1 %122, label %129, label %123

123:                                              ; preds = %120
  %124 = load i64, ptr %20, align 8, !tbaa !12
  %125 = load i64, ptr %8, align 8, !tbaa !12
  %126 = icmp ugt i64 %124, %125
  br i1 %126, label %127, label %129

127:                                              ; preds = %123
  %128 = load i64, ptr %8, align 8, !tbaa !12
  store i64 %128, ptr %6, align 8
  store i32 1, ptr %18, align 4
  br label %131

129:                                              ; preds = %123, %120, %111
  %130 = load i64, ptr %20, align 8, !tbaa !12
  store i64 %130, ptr %6, align 8
  store i32 1, ptr %18, align 4
  br label %131

131:                                              ; preds = %129, %127
  call void @llvm.lifetime.end.p0(i64 8, ptr %20) #9
  call void @llvm.lifetime.end.p0(i64 8, ptr %19) #9
  br label %132

132:                                              ; preds = %131, %89
  call void @llvm.lifetime.end.p0(i64 8, ptr %17) #9
  call void @llvm.lifetime.end.p0(i64 8, ptr %16) #9
  call void @llvm.lifetime.end.p0(i64 8, ptr %15) #9
  call void @llvm.lifetime.end.p0(i64 8, ptr %14) #9
  call void @llvm.lifetime.end.p0(i64 8, ptr %13) #9
  call void @llvm.lifetime.end.p0(i64 8, ptr %12) #9
  %133 = load i64, ptr %6, align 8
  ret i64 %133
}

; Function Attrs: inlinehint nounwind uwtable
define internal ptr @hpdata_purge_list_first(ptr noundef %0) #3 {
  %2 = alloca ptr, align 8
  store ptr %0, ptr %2, align 8, !tbaa !14
  %3 = load ptr, ptr %2, align 8, !tbaa !14
  %4 = getelementptr inbounds nuw %struct.hpdata_purge_list_t, ptr %3, i32 0, i32 0
  %5 = getelementptr inbounds nuw %struct.anon.0, ptr %4, i32 0, i32 0
  %6 = load ptr, ptr %5, align 8, !tbaa !15
  ret ptr %6
}

; Function Attrs: inlinehint nounwind uwtable
define internal i64 @fb_fls(ptr noundef %0, i64 noundef %1, i64 noundef %2) #3 {
  %4 = alloca ptr, align 8
  %5 = alloca i64, align 8
  %6 = alloca i64, align 8
  store ptr %0, ptr %4, align 8, !tbaa !10
  store i64 %1, ptr %5, align 8, !tbaa !12
  store i64 %2, ptr %6, align 8, !tbaa !12
  %7 = load ptr, ptr %4, align 8, !tbaa !10
  %8 = load i64, ptr %5, align 8, !tbaa !12
  %9 = load i64, ptr %6, align 8, !tbaa !12
  %10 = call i64 @fb_find_impl(ptr noundef %7, i64 noundef %8, i64 noundef %9, i1 noundef zeroext true, i1 noundef zeroext false)
  ret i64 %10
}

; Function Attrs: nounwind uwtable
define ptr @duckdb_je_psset_pick_purge(ptr noundef %0) #0 {
  %2 = alloca ptr, align 8
  %3 = alloca ptr, align 8
  %4 = alloca i64, align 8
  %5 = alloca i32, align 4
  %6 = alloca i32, align 4
  %7 = alloca ptr, align 8
  store ptr %0, ptr %3, align 8, !tbaa !3
  call void @llvm.lifetime.start.p0(i64 8, ptr %4) #9
  %8 = load ptr, ptr %3, align 8, !tbaa !3
  %9 = getelementptr inbounds nuw %struct.psset_s, ptr %8, i32 0, i32 6
  %10 = getelementptr inbounds [2 x i64], ptr %9, i64 0, i64 0
  %11 = call i64 @fb_fls(ptr noundef %10, i64 noundef 128, i64 noundef 127)
  store i64 %11, ptr %4, align 8, !tbaa !12
  %12 = load i64, ptr %4, align 8, !tbaa !12
  %13 = icmp slt i64 %12, 0
  br i1 %13, label %14, label %15

14:                                               ; preds = %1
  store ptr null, ptr %2, align 8
  store i32 1, ptr %5, align 4
  br label %31

15:                                               ; preds = %1
  call void @llvm.lifetime.start.p0(i64 4, ptr %6) #9
  %16 = load i64, ptr %4, align 8, !tbaa !12
  %17 = trunc i64 %16 to i32
  store i32 %17, ptr %6, align 4, !tbaa !8
  br label %18

18:                                               ; preds = %15
  br label %19

19:                                               ; preds = %18
  br label %20

20:                                               ; preds = %19
  call void @llvm.lifetime.start.p0(i64 8, ptr %7) #9
  %21 = load ptr, ptr %3, align 8, !tbaa !3
  %22 = getelementptr inbounds nuw %struct.psset_s, ptr %21, i32 0, i32 5
  %23 = load i32, ptr %6, align 4, !tbaa !8
  %24 = zext i32 %23 to i64
  %25 = getelementptr inbounds nuw [128 x %struct.hpdata_purge_list_t], ptr %22, i64 0, i64 %24
  %26 = call ptr @hpdata_purge_list_first(ptr noundef %25)
  store ptr %26, ptr %7, align 8, !tbaa !27
  br label %27

27:                                               ; preds = %20
  br label %28

28:                                               ; preds = %27
  br label %29

29:                                               ; preds = %28
  %30 = load ptr, ptr %7, align 8, !tbaa !27
  store ptr %30, ptr %2, align 8
  store i32 1, ptr %5, align 4
  call void @llvm.lifetime.end.p0(i64 8, ptr %7) #9
  call void @llvm.lifetime.end.p0(i64 4, ptr %6) #9
  br label %31

31:                                               ; preds = %29, %14
  call void @llvm.lifetime.end.p0(i64 8, ptr %4) #9
  %32 = load ptr, ptr %2, align 8
  ret ptr %32
}